; Listing generated by Microsoft (R) Optimizing Compiler Version 18.00.30723.0 

	TITLE	C:\Users\ivk737\Documents\Visual Studio 2013\Projects\Team6Project\DecryptData_Initial.cpp
	.686P
	.XMM
	include listing.inc
	.model	flat

INCLUDELIB LIBCMTD
INCLUDELIB OLDNAMES

PUBLIC	?decryptData@@YAHPADH@Z				; decryptData
EXTRN	@__security_check_cookie@4:PROC
EXTRN	__RTC_CheckEsp:PROC
EXTRN	__RTC_InitBase:PROC
EXTRN	__RTC_Shutdown:PROC
EXTRN	?gptrKey@@3PAEA:DWORD				; gptrKey
EXTRN	?gptrPasswordHash@@3PAEA:DWORD			; gptrPasswordHash
EXTRN	?gdebug1@@3EA:BYTE				; gdebug1
EXTRN	?gdebug2@@3EA:BYTE				; gdebug2
EXTRN	?gEncodeTable@@3PAEA:BYTE			; gEncodeTable
EXTRN	___security_cookie:DWORD
;	COMDAT rtc$TMZ
rtc$TMZ	SEGMENT
__RTC_Shutdown.rtc$TMZ DD FLAT:__RTC_Shutdown
rtc$TMZ	ENDS
;	COMDAT rtc$IMZ
rtc$IMZ	SEGMENT
__RTC_InitBase.rtc$IMZ DD FLAT:__RTC_InitBase
rtc$IMZ	ENDS
; Function compile flags: /Odtp /RTCsu /ZI
; File c:\users\ivk737\documents\visual studio 2013\projects\team6project\decryptdata_initial.cpp
;	COMDAT ?decryptData@@YAHPADH@Z
_TEXT	SEGMENT
_resulti$ = -12						; size = 4
__$ArrayPad$ = -4					; size = 4
_data$ = 8						; size = 4
_dataLength$ = 12					; size = 4
?decryptData@@YAHPADH@Z PROC				; decryptData, COMDAT

; 11   : {

  00000	55		 push	 ebp
  00001	8b ec		 mov	 ebp, esp
  00003	81 ec d0 00 00
	00		 sub	 esp, 208		; 000000d0H
  00009	53		 push	 ebx
  0000a	56		 push	 esi
  0000b	57		 push	 edi
  0000c	8d bd 30 ff ff
	ff		 lea	 edi, DWORD PTR [ebp-208]
  00012	b9 34 00 00 00	 mov	 ecx, 52			; 00000034H
  00017	b8 cc cc cc cc	 mov	 eax, -858993460		; ccccccccH
  0001c	f3 ab		 rep stosd
  0001e	a1 00 00 00 00	 mov	 eax, DWORD PTR ___security_cookie
  00023	33 c5		 xor	 eax, ebp
  00025	89 45 fc	 mov	 DWORD PTR __$ArrayPad$[ebp], eax

; 12   : 	int resulti = 0;

  00028	c7 45 f4 00 00
	00 00		 mov	 DWORD PTR _resulti$[ebp], 0

; 13   : 
; 14   : 	gdebug1 = 0;					// a couple of global variables that could be used for debugging

  0002f	c6 05 00 00 00
	00 00		 mov	 BYTE PTR ?gdebug1@@3EA, 0 ; gdebug1

; 15   : 	gdebug2 = 0;					// also can have a breakpoint in C code

  00036	c6 05 00 00 00
	00 00		 mov	 BYTE PTR ?gdebug2@@3EA, 0 ; gdebug2

; 16   : 
; 17   : 	// You can not declare any local variables in C, but should use resulti to indicate any errors
; 18   : 	// Set up the stack frame and assign variables in assembly if you need to do so
; 19   : 	// access the parameters BEFORE setting up your own stack frame
; 20   : 	// Also, you cannot use a lot of global variables - work with registers
; 21   : 	
; 22   : 	__asm {
; 23   : 
; 24   : 		// you will need to reference some of these global variables
; 25   : 		// (gptrPasswordHash or gPasswordHash), (gptrKey or gkey), gNumRounds
; 26   : 			mov esi, gptrPasswordHash;	put the address of gPasswordHash into esi

  0003d	8b 35 00 00 00
	00		 mov	 esi, DWORD PTR ?gptrPasswordHash@@3PAEA ; gptrPasswordHash

; 27   : 			xor eax, eax

  00043	33 c0		 xor	 eax, eax

; 28   : 			mov al, byte ptr[esi];		store gPassword[0] in %al

  00045	8a 06		 mov	 al, BYTE PTR [esi]

; 29   : 			shl ax, 8;					left shift by 8 (multiply by 256)

  00047	66 c1 e0 08	 shl	 ax, 8

; 30   : 			xor ecx, ecx;				set ecx = 0

  0004b	33 c9		 xor	 ecx, ecx

; 31   : 			mov cl, byte ptr[esi + 1];	set cx to gPassword[1]

  0004d	8a 4e 01	 mov	 cl, BYTE PTR [esi+1]

; 32   : 			add ax, cx;					add gPassword[1] to ax, ax is now the starting index for the keyFile

  00050	66 03 c1	 add	 ax, cx

; 33   : 			// ax = starting_index = gPasswordHash[0] * 256 + gPasswordHash[1]
; 34   : 
; 35   : 			xor ebx, ebx;				ebx = control variable(loop)

  00053	33 db		 xor	 ebx, ebx

; 36   : 			xor ecx, ecx

  00055	33 c9		 xor	 ecx, ecx

; 37   : 			mov ecx, dataLength;		ecx = length

  00057	8b 4d 0c	 mov	 ecx, DWORD PTR _dataLength$[ebp]

; 38   : 			cmp ecx, 0;					check that the length is not less than or equal to 0

  0005a	83 f9 00	 cmp	 ecx, 0

; 39   : 			sub ecx, 1;					ecx-- (file length is 1 less than previous)

  0005d	83 e9 01	 sub	 ecx, 1

; 40   : 			jbe lbl_EXIT_ZERO_LENGTH

  00060	76 6b		 jbe	 SHORT $lbl_EXIT_ZERO_LENGTH$3

; 41   : 
; 42   : 			mov edi, data;				put the address of first byte of data in %edi

  00062	8b 7d 08	 mov	 edi, DWORD PTR _data$[ebp]

; 43   : 			mov esi, gptrKey;			put the address of gKey into %esi

  00065	8b 35 00 00 00
	00		 mov	 esi, DWORD PTR ?gptrKey@@3PAEA ; gptrKey
$lbl_LOOP$4:

; 44   : 	
; 45   : 			//
; 46   : 			// LOOP THROUGH ENTIRE data[] BYTE BY BYTE
; 47   : 			// At each step, data is load from the dl register and that step is performed on the data
; 48   : 			// The modified data is then loaded back into dl
; 49   : 		lbl_LOOP:
; 50   : 				mov dl, byte ptr[edi + ebx];	get the current byte being manipulated

  0006b	8a 14 1f	 mov	 dl, BYTE PTR [edi+ebx]

; 51   : 				
; 52   : 				// Free up the registers for use in Steps A - E
; 53   : 				push eax

  0006e	50		 push	 eax

; 54   : 				push ebx

  0006f	53		 push	 ebx

; 55   : 				push ecx

  00070	51		 push	 ecx

; 56   : 				
; 57   : 				// Part A reverse bit order	- value will be in 'dl'
; 58   : 				mov al, dl;		load data from previous step into al

  00071	8a c2		 mov	 al, dl

; 59   : 				mov cl, 7;		starting byte position to shift maninpulated data into

  00073	b1 07		 mov	 cl, 7

; 60   : 				mov dh, 1;		dh is a 1 which travels in the byte, moving 1 position from right to left with each iteration

  00075	b6 01		 mov	 dh, 1

; 61   : 				mov dl, 0;		clear dl for use as loop counter

  00077	b2 00		 mov	 dl, 0
$LOOP1$5:

; 62   : 
; 63   : 		LOOP1 : push ax

  00079	66 50		 push	 ax

; 64   : 				AND al, dh;		first time through loop AND with 0000 0000b, second time with 0000 0001b, third time with 0000 0010b...

  0007b	22 c6		 and	 al, dh

; 65   : 				push cx;		save previous value of cx

  0007d	66 51		 push	 cx

; 66   : 				mov cl, dl;		load the value of loop counter into cl

  0007f	8a ca		 mov	 cl, dl

; 67   : 				shr al, cl;		shr by value of loop counter(first time by 0, second time by 1...)

  00081	d2 e8		 shr	 al, cl

; 68   : 				pop cx;			restore cx

  00083	66 59		 pop	 cx

; 69   : 				mov bh, al;		load the shifted result into bh

  00085	8a f8		 mov	 bh, al

; 70   : 				shl bh, cl;		shift into position - '7' for byte 0, '6' for byte 1...

  00087	d2 e7		 shl	 bh, cl

; 71   : 				OR ch, bh;		OR to the final result

  00089	0a ef		 or	 ch, bh

; 72   : 				DEC cl;			decrease byte position to shift manipulated data into

  0008b	fe c9		 dec	 cl

; 73   : 				INC dl;			raise the loop counter by 1

  0008d	fe c2		 inc	 dl

; 74   : 				shl dh, 1;		first time through loop dh = 0000 0001b, second time dh = 0000 0010b...

  0008f	d0 e6		 shl	 dh, 1

; 75   : 				pop ax;

  00091	66 58		 pop	 ax

; 76   : 				cmp dl, 8;		when loop counter reaches 8, exit to END

  00093	80 fa 08	 cmp	 dl, 8

; 77   : 				je END

  00096	74 02		 je	 SHORT $END$6

; 78   : 				jmp LOOP1

  00098	eb df		 jmp	 SHORT $LOOP1$5
$END$6:

; 79   : 		END :
; 80   : 			xor dh, dh;		clear dh so that when we loop back to Step E, edx = dl

  0009a	32 f6		 xor	 dh, dh

; 81   : 			mov dl, ch;		save modified data in dl

  0009c	8a d5		 mov	 dl, ch

; 82   : 			//*/
; 83   : 
; 84   : 			// Part C swap half nibbles
; 85   : 			mov eax, edx;		load data to be swapped in eax

  0009e	8b c2		 mov	 eax, edx

; 86   : 			lea bl, [eax * 4];	shift data to the left 2 and save in bl

  000a0	66 8d 1c 85 00
	00 00 00	 lea	 bx, WORD PTR [eax*4]

; 87   : 			and bl, 0xCC;		masking to get indexes we want to swap eg. 1100 1100

  000a8	80 e3 cc	 and	 bl, -52			; ffffffccH

; 88   : 			shr al, 2;			shift original data 2 to the right

  000ab	c0 e8 02	 shr	 al, 2

; 89   : 			and al, 0x33;		mask remaining indexes eg. 0011 0011

  000ae	24 33		 and	 al, 51			; 00000033H

; 90   : 			or dl, bl;			combine and save in dl

  000b0	0a d3		 or	 dl, bl

; 91   : 			//*/
; 92   : 
; 93   : 			// Part E, swapping dl with the table value.
; 94   : 			mov dl, gEncodeTable[edx]

  000b2	8a 92 00 00 00
	00		 mov	 dl, BYTE PTR ?gEncodeTable@@3PAEA[edx]

; 95   : 			//*/
; 96   : 
; 97   : 			// Part B invert bits 0, 3, 6
; 98   : 			xor	dl, 0x49; bitMask = 0x49

  000b8	80 f2 49	 xor	 dl, 73			; 00000049H

; 99   : 			//*/
; 100  : 
; 101  : 			// Part D rotate 3 bits right
; 102  : 			ror dl, 3

  000bb	c0 ca 03	 ror	 dl, 3

; 103  : 			//*/
; 104  : 
; 105  : 			// Restore registers back to their previous states and save the modified data
; 106  : 			pop eax

  000be	58		 pop	 eax

; 107  : 			pop ebx

  000bf	5b		 pop	 ebx

; 108  : 			pop ecx

  000c0	59		 pop	 ecx

; 109  : 
; 110  : 			// XOR with the keyFile
; 111  : 			xor dl, byte ptr[esi + eax];	data[ebx] = data[ebx] xor with keyfile[starting_index]

  000c1	32 14 06	 xor	 dl, BYTE PTR [esi+eax]

; 112  : 
; 113  : 			// LOOP control
; 114  : 			add ebx, 1;						increment loop counter by 1

  000c4	83 c3 01	 add	 ebx, 1

; 115  : 			cmp ebx, ecx;					if dataLength of the input file > loop counter, exit to lbl_EXIT

  000c7	3b d9		 cmp	 ebx, ecx

; 116  : 			ja lbl_EXIT_END

  000c9	77 07		 ja	 SHORT $lbl_EXIT_END$7

; 117  : 			jmp lbl_LOOP;					if dataLength < loop counter, jump back to lbl_LOOP

  000cb	eb 9e		 jmp	 SHORT $lbl_LOOP$4
$lbl_EXIT_ZERO_LENGTH$3:

; 118  : 
; 119  : 		lbl_EXIT_ZERO_LENGTH :
; 120  : 		sub ebx, 1 // decrement ebx to -1 to return failure

  000cd	83 eb 01	 sub	 ebx, 1

; 121  : 		jmp lbl_EXIT //

  000d0	eb 02		 jmp	 SHORT $lbl_EXIT$8
$lbl_EXIT_END$7:

; 122  : 
; 123  : 		lbl_EXIT_END :
; 124  : 		xor ebx, ebx // ebx = 0, correctly executed

  000d2	33 db		 xor	 ebx, ebx
$lbl_EXIT$8:

; 125  : 
; 126  : 		lbl_EXIT :
; 127  : 		mov resulti, ebx

  000d4	89 5d f4	 mov	 DWORD PTR _resulti$[ebp], ebx

; 128  : 		
; 129  : 		/*
; 130  : 		// simple example that xors 2nd byte of data with 14th byte in the key file
; 131  : 		lea esi,gkey				// put the ADDRESS of gkey into esi
; 132  : 		mov esi,gptrKey;			// put the ADDRESS of gkey into esi (since *gptrKey = gkey)
; 133  : 
; 134  : 		lea	esi,gPasswordHash		// put ADDRESS of gPasswordHash into esi
; 135  : 		mov esi,gptrPasswordHash	// put ADDRESS of gPasswordHash into esi (since unsigned char *gptrPasswordHash = gPasswordHash)
; 136  : 
; 137  : 		mov al,byte ptr [esi]				// get first byte of password hash
; 138  : 		mov al,byte ptr [esi+4]				// get 5th byte of password hash
; 139  : 		mov ebx,2
; 140  : 		mov al,byte ptr [esi+ebx]			// get 3rd byte of password hash
; 141  : 		mov al,byte ptr [esi+ebx*2]			// get 5th byte of password hash
; 142  : 
; 143  : 		mov ax,word ptr [esi+ebx*2]			// gets 5th and 6th bytes of password hash ( gPasswordHash[4] and gPasswordHash[5] ) into ax
; 144  : 		mov eax,dword ptr [esi+ebx*2]		// gets 4 bytes, as in:  unsigned int X = *( (unsigned int*) &gPasswordHash[4] );
; 145  : 
; 146  : 		mov al,byte ptr [gkey+ebx]			// get's 3rd byte of gkey[] data
; 147  : 
; 148  : 		mov al,byte ptr [gptrKey+ebx]		// THIS IS INCORRECT - will add the address of the gptrKey global variable (NOT the value that gptrKey holds)
; 149  : 
; 150  : 		mov al,byte ptr [esi+0xd];			// access 14th byte in gkey[]: 0, 1, 2 ... d is the 14th byte
; 151  : 		mov edi,data				// Put ADDRESS of first data element into edi
; 152  : 		xor byte ptr [edi+1],al		// Exclusive-or the 2nd byte of data with the 14th element of the keyfile
; 153  : 									// NOTE: Keyfile[14] = 0x21, that value changes the case of a letter and flips the LSB
; 154  : 									// Lowercase "c" = 0x63 becomes capital "B" since 0x63 xor 0x21 = 0x42 
; 155  : 		*/
; 156  : 	}
; 157  : 
; 158  : 	return resulti;

  000d7	8b 45 f4	 mov	 eax, DWORD PTR _resulti$[ebp]

; 159  : } // decryptData

  000da	5f		 pop	 edi
  000db	5e		 pop	 esi
  000dc	5b		 pop	 ebx
  000dd	8b 4d fc	 mov	 ecx, DWORD PTR __$ArrayPad$[ebp]
  000e0	33 cd		 xor	 ecx, ebp
  000e2	e8 00 00 00 00	 call	 @__security_check_cookie@4
  000e7	81 c4 d0 00 00
	00		 add	 esp, 208		; 000000d0H
  000ed	3b ec		 cmp	 ebp, esp
  000ef	e8 00 00 00 00	 call	 __RTC_CheckEsp
  000f4	8b e5		 mov	 esp, ebp
  000f6	5d		 pop	 ebp
  000f7	c3		 ret	 0
?decryptData@@YAHPADH@Z ENDP				; decryptData
_TEXT	ENDS
END
