; Listing generated by Microsoft (R) Optimizing Compiler Version 18.00.30723.0 

	TITLE	C:\Users\ivk737\Documents\Visual Studio 2013\Projects\Team6Project\EncryptData_Initial.cpp
	.686P
	.XMM
	include listing.inc
	.model	flat

INCLUDELIB LIBCMTD
INCLUDELIB OLDNAMES

PUBLIC	?encryptData@@YAHPADH@Z				; encryptData
EXTRN	@__security_check_cookie@4:PROC
EXTRN	__RTC_CheckEsp:PROC
EXTRN	__RTC_InitBase:PROC
EXTRN	__RTC_Shutdown:PROC
EXTRN	?gptrKey@@3PAEA:DWORD				; gptrKey
EXTRN	?gptrPasswordHash@@3PAEA:DWORD			; gptrPasswordHash
EXTRN	?gdebug1@@3EA:BYTE				; gdebug1
EXTRN	?gdebug2@@3EA:BYTE				; gdebug2
EXTRN	?gEncodeTable@@3PAEA:BYTE			; gEncodeTable
EXTRN	___security_cookie:DWORD
;	COMDAT rtc$TMZ
rtc$TMZ	SEGMENT
__RTC_Shutdown.rtc$TMZ DD FLAT:__RTC_Shutdown
rtc$TMZ	ENDS
;	COMDAT rtc$IMZ
rtc$IMZ	SEGMENT
__RTC_InitBase.rtc$IMZ DD FLAT:__RTC_InitBase
rtc$IMZ	ENDS
; Function compile flags: /Odtp /RTCsu /ZI
; File c:\users\ivk737\documents\visual studio 2013\projects\team6project\encryptdata_initial.cpp
;	COMDAT ?encryptData@@YAHPADH@Z
_TEXT	SEGMENT
_resulti$ = -12						; size = 4
__$ArrayPad$ = -4					; size = 4
_data$ = 8						; size = 4
_dataLength$ = 12					; size = 4
?encryptData@@YAHPADH@Z PROC				; encryptData, COMDAT

; 11   : {

  00000	55		 push	 ebp
  00001	8b ec		 mov	 ebp, esp
  00003	81 ec d0 00 00
	00		 sub	 esp, 208		; 000000d0H
  00009	53		 push	 ebx
  0000a	56		 push	 esi
  0000b	57		 push	 edi
  0000c	8d bd 30 ff ff
	ff		 lea	 edi, DWORD PTR [ebp-208]
  00012	b9 34 00 00 00	 mov	 ecx, 52			; 00000034H
  00017	b8 cc cc cc cc	 mov	 eax, -858993460		; ccccccccH
  0001c	f3 ab		 rep stosd
  0001e	a1 00 00 00 00	 mov	 eax, DWORD PTR ___security_cookie
  00023	33 c5		 xor	 eax, ebp
  00025	89 45 fc	 mov	 DWORD PTR __$ArrayPad$[ebp], eax

; 12   : 	int resulti = 0;

  00028	c7 45 f4 00 00
	00 00		 mov	 DWORD PTR _resulti$[ebp], 0

; 13   : 
; 14   : 	gdebug1 = 0;					// a couple of global variables that could be used for debugging

  0002f	c6 05 00 00 00
	00 00		 mov	 BYTE PTR ?gdebug1@@3EA, 0 ; gdebug1

; 15   : 	gdebug2 = 0;					// also can have a breakpoint in C code

  00036	c6 05 00 00 00
	00 00		 mov	 BYTE PTR ?gdebug2@@3EA, 0 ; gdebug2

; 16   : 
; 17   : 	// You can not declare any local variables in C, but should use resulti to indicate any errors
; 18   : 	// Set up the stack frame and assign variables in assembly if you need to do so
; 19   : 	// access the parameters BEFORE setting up your own stack frame
; 20   : 	// Also, you cannot use a lot of global variables - work with registers
; 21   : 
; 22   : 	__asm {
; 23   : 
; 24   : 		// you will need to reference some of these global variables
; 25   : 		// (gptrPasswordHash or gPasswordHash), (gptrKey or gkey), gNumRounds
; 26   : 
; 27   : 		mov esi, gptrPasswordHash // put the address of gPasswordHash into %esi

  0003d	8b 35 00 00 00
	00		 mov	 esi, DWORD PTR ?gptrPasswordHash@@3PAEA ; gptrPasswordHash

; 28   : 			xor eax, eax //

  00043	33 c0		 xor	 eax, eax

; 29   : 			mov al, byte ptr[esi] // store gPassword[0] in %al

  00045	8a 06		 mov	 al, BYTE PTR [esi]

; 30   : 			shl ax, 8 // left shift by 8 (multiply by 256)

  00047	66 c1 e0 08	 shl	 ax, 8

; 31   : 			xor ecx, ecx // set %ecx = 0

  0004b	33 c9		 xor	 ecx, ecx

; 32   : 			mov cl, byte ptr[esi + 1] // set %cx to gPassword[1]

  0004d	8a 4e 01	 mov	 cl, BYTE PTR [esi+1]

; 33   : 			add ax, cx // add gPassword[1] to ax, ax is now the starting index for key.dat

  00050	66 03 c1	 add	 ax, cx

; 34   : 			// ax = starting_index = gPasswordHash[0] * 256 + gPasswordHash[1]
; 35   : 
; 36   : 			xor ebx, ebx // %ebx = control variable (loop)

  00053	33 db		 xor	 ebx, ebx

; 37   : 			xor ecx, ecx

  00055	33 c9		 xor	 ecx, ecx

; 38   : 			mov ecx, dataLength // %ecx = length

  00057	8b 4d 0c	 mov	 ecx, DWORD PTR _dataLength$[ebp]

; 39   : 			cmp ecx, 0 // check that the length is not less than or equal to 0

  0005a	83 f9 00	 cmp	 ecx, 0

; 40   : 			sub ecx, 1 // ecx-- (file length is 1 less than previous)

  0005d	83 e9 01	 sub	 ecx, 1

; 41   : 			jbe lbl_EXIT_ZERO_LENGTH //

  00060	76 58		 jbe	 SHORT $lbl_EXIT_ZERO_LENGTH$3

; 42   : 
; 43   : 			mov edi, data // put the address of first byte of data in %edi

  00062	8b 7d 08	 mov	 edi, DWORD PTR _data$[ebp]

; 44   : 			mov esi, gptrKey // put the address of gKey into %esi

  00065	8b 35 00 00 00
	00		 mov	 esi, DWORD PTR ?gptrKey@@3PAEA ; gptrKey
$lbl_LOOP$4:

; 45   : 
; 46   : 			//
; 47   : 			// LOOP THROUGH ENTIRE data[] BYTE BY BYTE
; 48   : 			//
; 49   : 		lbl_LOOP :
; 50   : 		mov dl, byte ptr[edi + ebx] //get the current data being manipulated

  0006b	8a 14 1f	 mov	 dl, BYTE PTR [edi+ebx]

; 51   : 			xor dl, byte ptr[esi + eax] // data[ebx] = data[ebx] xor with keyfile[starting_index]

  0006e	32 14 06	 xor	 dl, BYTE PTR [esi+eax]

; 52   : 
; 53   : 			// Part D rotate 3 bits right
; 54   : 
; 55   : 			// Part B invert bits 0, 3, 6		0xB5 --> 0xFC
; 56   : 			mov	DWORD PTR[ebp + 8], 73;

  00071	c7 45 08 49 00
	00 00		 mov	 DWORD PTR [ebp+8], 73	; 00000049H

; 57   : 			mov	eax, DWORD PTR[data]

  00078	8b 45 08	 mov	 eax, DWORD PTR _data$[ebp]

; 58   : 			xor	eax, DWORD PTR[ebp + 8]	// XOR with bitMask, 0x49

  0007b	33 45 08	 xor	 eax, DWORD PTR [ebp+8]

; 59   : 
; 60   : 			/* Part E, swapping dl with the table value.
; 61   : 			TO BE DONE: ordering each part correctly.*/
; 62   : 			mov dl, gEncodeTable[ebx]

  0007e	8a 93 00 00 00
	00		 mov	 dl, BYTE PTR ?gEncodeTable@@3PAEA[ebx]

; 63   : 
; 64   : 			// Part C swap half nibbles
; 65   : 
; 66   : 			// Part A reverse bit order	- value will be in 'ch'		0xAD --> 0xB5
; 67   : 			mov eax, data

  00084	8b 45 08	 mov	 eax, DWORD PTR _data$[ebp]

; 68   : 			mov cl, 7

  00087	b1 07		 mov	 cl, 7

; 69   : 			mov dh, 1	// DH is a 1 which travels in the byte from right to left

  00089	b6 01		 mov	 dh, 1

; 70   : 			mov dl, 0

  0008b	b2 00		 mov	 dl, 0
$LOOP1$5:

; 71   : 
; 72   : 		LOOP1: push ax

  0008d	66 50		 push	 ax

; 73   : 			   AND al, dh

  0008f	22 c6		 and	 al, dh

; 74   : 			   push cx

  00091	66 51		 push	 cx

; 75   : 			   mov cl, dl

  00093	8a ca		 mov	 cl, dl

; 76   : 			   shr al, cl	// shift right to get the value as 0 or 1

  00095	d2 e8		 shr	 al, cl

; 77   : 			   pop cx

  00097	66 59		 pop	 cx

; 78   : 			   mov bh, al

  00099	8a f8		 mov	 bh, al

; 79   : 			   shl bh, cl	// shift into position - '7' for byte 0, '6' for byte 1...

  0009b	d2 e7		 shl	 bh, cl

; 80   : 			   OR ch, bh	// OR to the final result

  0009d	0a ef		 or	 ch, bh

; 81   : 			   DEC cl

  0009f	fe c9		 dec	 cl

; 82   : 			   INC dl

  000a1	fe c2		 inc	 dl

; 83   : 			   shl dh, 1

  000a3	d0 e6		 shl	 dh, 1

; 84   : 			   pop ax

  000a5	66 58		 pop	 ax

; 85   : 			   cmp dl, 8

  000a7	80 fa 08	 cmp	 dl, 8

; 86   : 			   je END

  000aa	74 02		 je	 SHORT $END$6

; 87   : 			   jmp LOOP1

  000ac	eb df		 jmp	 SHORT $LOOP1$5
$END$6:

; 88   : 
; 89   : 		   END :
; 90   : 
; 91   : 		mov byte ptr[edi + ebx], dl //replace the data in array with the now-encrypted data

  000ae	88 14 1f	 mov	 BYTE PTR [edi+ebx], dl

; 92   : 
; 93   : 			add ebx, 1 // increment %ebx by 1

  000b1	83 c3 01	 add	 ebx, 1

; 94   : 			cmp ebx, ecx // if(ebx > ecx) { end loop }

  000b4	3b d9		 cmp	 ebx, ecx

; 95   : 			ja lbl_EXIT_END //

  000b6	77 07		 ja	 SHORT $lbl_EXIT_END$7

; 96   : 			jmp lbl_LOOP // else { loop }

  000b8	eb b1		 jmp	 SHORT $lbl_LOOP$4
$lbl_EXIT_ZERO_LENGTH$3:

; 97   : 
; 98   : 		lbl_EXIT_ZERO_LENGTH :
; 99   : 		sub ebx, 1 // decrement ebx to -1 to return failure

  000ba	83 eb 01	 sub	 ebx, 1

; 100  : 			jmp lbl_EXIT //

  000bd	eb 02		 jmp	 SHORT $lbl_EXIT$8
$lbl_EXIT_END$7:

; 101  : 
; 102  : 		lbl_EXIT_END :
; 103  : 		xor ebx, ebx // ebx = 0, correctly executed

  000bf	33 db		 xor	 ebx, ebx
$lbl_EXIT$8:

; 104  : 
; 105  : 		lbl_EXIT :
; 106  : 		mov resulti, ebx

  000c1	89 5d f4	 mov	 DWORD PTR _resulti$[ebp], ebx

; 107  : 
; 108  : 
; 109  : 			/*// simple example that xors 2nd byte of data with 14th byte in the key file
; 110  : 			lea esi,gkey				// put the ADDRESS of gkey into esi
; 111  : 			mov esi,gptrKey;			// put the ADDRESS of gkey into esi (since *gptrKey = gkey)
; 112  : 
; 113  : 			lea	esi,gPasswordHash		// put ADDRESS of gPasswordHash into esi
; 114  : 			mov esi,gptrPasswordHash	// put ADDRESS of gPasswordHash into esi (since unsigned char *gptrPasswordHash = gPasswordHash)
; 115  : 
; 116  : 			mov al,byte ptr [esi]				// get first byte of password hash
; 117  : 			mov al,byte ptr [esi+4]				// get 5th byte of password hash
; 118  : 			mov ebx,2
; 119  : 			mov al,byte ptr [esi+ebx]			// get 3rd byte of password hash
; 120  : 			mov al,byte ptr [esi+ebx*2]			// get 5th byte of password hash
; 121  : 
; 122  : 			mov ax,word ptr [esi+ebx*2]			// gets 5th and 6th bytes of password hash ( gPasswordHash[4] and gPasswordHash[5] ) into ax
; 123  : 			mov eax,dword ptr [esi+ebx*2]		// gets 4 bytes, as in:  unsigned int X = *( (unsigned int*) &gPasswordHash[4] );
; 124  : 
; 125  : 			mov al,byte ptr [gkey+ebx]			// get's 3rd byte of gkey[] data
; 126  : 
; 127  : 			mov al,byte ptr [gptrKey+ebx]		// THIS IS INCORRECT - will add the address of the gptrKey global variable (NOT the value that gptrKey holds)
; 128  : 
; 129  : 			mov al,byte ptr [esi+0xd];			// access 14th byte in gkey[]: 0, 1, 2 ... d is the 14th byte
; 130  : 			mov edi,data				// Put ADDRESS of first data element into edi
; 131  : 			xor byte ptr [edi+1],al		// Exclusive-or the 2nd byte of data with the 14th element of the keyfile
; 132  : 			// NOTE: Keyfile[14] = 0x21, that value changes the case of a letter and flips the LSB
; 133  : 			// Capital "B" = 0x42 becomes lowercase "c" since 0x42 xor 0x21 = 0x63	*/
; 134  : 	}
; 135  : 
; 136  : 	return resulti;

  000c4	8b 45 f4	 mov	 eax, DWORD PTR _resulti$[ebp]

; 137  : } // encryptData

  000c7	5f		 pop	 edi
  000c8	5e		 pop	 esi
  000c9	5b		 pop	 ebx
  000ca	8b 4d fc	 mov	 ecx, DWORD PTR __$ArrayPad$[ebp]
  000cd	33 cd		 xor	 ecx, ebp
  000cf	e8 00 00 00 00	 call	 @__security_check_cookie@4
  000d4	81 c4 d0 00 00
	00		 add	 esp, 208		; 000000d0H
  000da	3b ec		 cmp	 ebp, esp
  000dc	e8 00 00 00 00	 call	 __RTC_CheckEsp
  000e1	8b e5		 mov	 esp, ebp
  000e3	5d		 pop	 ebp
  000e4	c3		 ret	 0
?encryptData@@YAHPADH@Z ENDP				; encryptData
_TEXT	ENDS
END
